target datalayout = "e-m:e-p270:32:32-p271:32:32-p272:64:64-i64:64-i128:128-f80:128-n8:16:32:64-S128"
target triple = "x86_64-pc-linux-gnu"

%struct.redisServer = type { i32, i64, ptr, ptr, ptr, i32, i32, i32, i32, i32, ptr, ptr, ptr, ptr, ptr, i32, i32, i32, i32, i64, i32, i32, i32, i32, ptr, i32, i32, [41 x i8], i32, i64, i32, i32, i32, ptr, ptr, i32, i32, i64, ptr, ptr, ptr, ptr, [2 x i32], i32, i32, i32, i32, i32, i32, [16 x ptr], i32, ptr, ptr, i32, [8 x %struct.connListener], i32, %struct.connListener, ptr, ptr, ptr, ptr, ptr, ptr, ptr, ptr, ptr, ptr, i32, ptr, i32, ptr, [3 x %struct.pause_event], [256 x i8], ptr, i64, i32, i32, [128 x i32], i32, i32, i64, i32, i32, i32, i32, i32, i64, i64, i64, i64, i64, i64, i64, i64, i64, i64, double, i64, i64, i64, i64, i64, i64, i64, i64, i64, i64, i64, i64, i64, i64, i64, i64, i64, i64, i64, i64, i64, double, i64, i64, i64, i64, i64, ptr, i64, i64, i64, %struct.malloc_stats, i64, i64, i64, i64, i64, i64, i64, i64, i64, i64, i64, i64, double, [4 x i64], i64, i64, i64, i64, [128 x i64], [128 x i64], i64, i64, [7 x %struct.anon.2], i64, i64, i64, i64, i64, i64, [4 x %struct.durationStats], i32, i32, i32, i32, i32, i32, i32, i32, i32, i32, i32, i32, i64, i32, i32, i32, i32, i64, i64, i32, i32, i32, i32, i32, ptr, [3 x %struct.clientBufferLimitsConfig], i32, i32, i32, ptr, i32, i32, i32, i32, i32, i32, ptr, ptr, i32, i32, i64, i64, i64, i64, i64, i32, i32, ptr, i32, i32, i64, i64, i64, i64, i64, i32, i32, i64, i32, i32, i32, i32, i32, i32, i32, i32, ptr, i32, i64, i64, i64, i64, i32, ptr, i32, ptr, i32, i32, i32, i64, i64, i64, i64, i32, i32, i32, i32, i32, i32, ptr, i32, i32, ptr, i32, i32, i32, [2 x i32], i32, %struct.redisOpArray, i32, ptr, i32, ptr, i32, i32, i32, i32, i32, i32, i32, [41 x i8], [41 x i8], i64, i64, i64, i64, i32, i32, ptr, i64, i64, %struct.replDataBuf, i64, i64, i32, i32, i32, i32, i32, i32, i32, i32, i32, i64, ptr, i64, ptr, ptr, ptr, i32, i32, ptr, ptr, i32, i32, i32, i64, i64, i64, i64, ptr, ptr, i32, ptr, i64, i32, i32, i32, i64, i32, i32, i32, i32, ptr, i32, i32, [41 x i8], i64, i32, ptr, i32, i32, i64, i64, i32, i32, i32, i32, i32, i64, [3 x i32], i32, i32, i32, [10 x i32], ptr, ptr, i32, i64, ptr, ptr, i32, i32, i32, i32, i64, i64, i64, i64, i64, i64, i64, i64, i64, i64, i32, i32, i64, i64, i32, i64, i64, i64, i64, i64, ptr, ptr, i32, ptr, i32, i32, i32, i32, i64, i64, ptr, ptr, i32, i32, i32, i32, i32, ptr, ptr, ptr, i32, i32, i32, i32, i32, i32, i32, i64, i32, i32, i64, i32, i32, i32, i32, i32, i32, i32, i64, ptr, ptr, i64, ptr, i32, %struct.aclInfo, i32, i64, i32, i32, i32, %struct.redisTLSContextConfig, ptr, ptr, ptr, ptr, ptr, i64, i32, ptr, i32, i32, i32, i64, i32, ptr }
%struct.connListener = type { [16 x i32], i32, ptr, i32, i32, ptr, ptr }
%struct.pause_event = type { i32, i64 }
%struct.malloc_stats = type { i64, i64, i64, i64, i64, i64, i64, i64, i64, i64, i64 }
%struct.anon.2 = type { i64, i64, [16 x i64], i32 }
%struct.durationStats = type { i64, i64, i64 }
%struct.clientBufferLimitsConfig = type { i64, i64, i64 }
%struct.redisOpArray = type { ptr, i32, i32 }
%struct.replDataBuf = type { ptr, i64, i64, i64, i64 }
%struct.aclInfo = type { i64, i64, i64, i64 }
%struct.redisTLSContextConfig = type { ptr, ptr, ptr, ptr, ptr, ptr, ptr, ptr, ptr, ptr, ptr, ptr, i32, i32, i32, i32 }
%struct.__va_list_tag = type { i32, i32, ptr, ptr }
%struct.RedisModuleType = type { i64, ptr, ptr, ptr, ptr, ptr, ptr, ptr, ptr, ptr, ptr, ptr, ptr, ptr, ptr, ptr, ptr, ptr, ptr, i32, [10 x i8] }
%struct.RedisModuleIO = type { i64, ptr, ptr, i32, ptr, ptr, i32, ptr }

@server = external global %struct.redisServer, align 8
@.str.63 = private unnamed_addr constant [79 x i8] c"Fatal: AOF method for module data type '%s' tried to emit unknown command '%s'\00", align 1
@.str.64 = private unnamed_addr constant [114 x i8] c"Fatal: AOF method for module data type '%s' tried to call RedisModule_EmitAOF() with wrong format specifiers '%s'\00", align 1

; Function Attrs: nounwind uwtable
define dso_local void @RM_EmitAOF(ptr noundef %0, ptr noundef %1, ptr noundef %2, ...) #0 {
  %4 = alloca ptr, align 8
  %5 = alloca ptr, align 8
  %6 = alloca ptr, align 8
  %7 = alloca ptr, align 8
  %8 = alloca ptr, align 8
  %9 = alloca i32, align 4
  %10 = alloca i32, align 4
  %11 = alloca i32, align 4
  %12 = alloca [1 x %struct.__va_list_tag], align 16
  %13 = alloca i32, align 4
  store ptr %0, ptr %4, align 8, !tbaa !521
  store ptr %1, ptr %5, align 8, !tbaa !11
  store ptr %2, ptr %6, align 8, !tbaa !11
  %14 = load ptr, ptr %4, align 8, !tbaa !521
  %15 = getelementptr inbounds nuw %struct.RedisModuleIO, ptr %14, i32 0, i32 3
  %16 = load i32, ptr %15, align 8, !tbaa !526
  %17 = icmp ne i32 %16, 0
  br i1 %17, label %18, label %19

18:                                               ; preds = %3
  br label %119

19:                                               ; preds = %3
  call void @llvm.lifetime.start.p0(i64 8, ptr %7) #15
  call void @llvm.lifetime.start.p0(i64 8, ptr %8) #15
  store ptr null, ptr %8, align 8, !tbaa !154
  call void @llvm.lifetime.start.p0(i64 4, ptr %9) #15
  store i32 0, ptr %9, align 4, !tbaa !29
  call void @llvm.lifetime.start.p0(i64 4, ptr %10) #15
  store i32 0, ptr %10, align 4, !tbaa !29
  call void @llvm.lifetime.start.p0(i64 4, ptr %11) #15
  call void @llvm.lifetime.start.p0(i64 24, ptr %12) #15
  %20 = load ptr, ptr %5, align 8, !tbaa !11
  %21 = call ptr @lookupCommandByCString(ptr noundef %20)
  store ptr %21, ptr %7, align 8, !tbaa !153
  %22 = load ptr, ptr %7, align 8, !tbaa !153
  %23 = icmp ne ptr %22, null
  br i1 %23, label %41, label %24

24:                                               ; preds = %19
  br label %25

25:                                               ; preds = %24
  %26 = load i32, ptr getelementptr inbounds nuw (%struct.redisServer, ptr @server, i32 0, i32 159), align 8, !tbaa !101
  %27 = icmp slt i32 3, %26
  br i1 %27, label %28, label %29

28:                                               ; preds = %25
  br label %37

29:                                               ; preds = %25
  %30 = load ptr, ptr %4, align 8, !tbaa !521
  %31 = getelementptr inbounds nuw %struct.RedisModuleIO, ptr %30, i32 0, i32 2
  %32 = load ptr, ptr %31, align 8, !tbaa !523
  %33 = getelementptr inbounds nuw %struct.RedisModuleType, ptr %32, i32 0, i32 20
  %34 = getelementptr inbounds [10 x i8], ptr %33, i64 0, i64 0
  %35 = load ptr, ptr %5, align 8, !tbaa !11
  call void (i32, ptr, ...) @_serverLog(i32 noundef 3, ptr noundef @.str.63, ptr noundef %34, ptr noundef %35)
  br label %36

36:                                               ; preds = %29
  br label %37

37:                                               ; preds = %36, %28
  %38 = load ptr, ptr %4, align 8, !tbaa !521
  %39 = getelementptr inbounds nuw %struct.RedisModuleIO, ptr %38, i32 0, i32 3
  store i32 1, ptr %39, align 8, !tbaa !526
  %40 = call ptr @__errno_location() #20
  store i32 22, ptr %40, align 4, !tbaa !29
  store i32 1, ptr %13, align 4
  br label %118

41:                                               ; preds = %19
  %42 = getelementptr inbounds [1 x %struct.__va_list_tag], ptr %12, i64 0, i64 0
  call void @llvm.va_start.p0(ptr %42)
  %43 = load ptr, ptr %5, align 8, !tbaa !11
  %44 = load ptr, ptr %6, align 8, !tbaa !11
  %45 = getelementptr inbounds [1 x %struct.__va_list_tag], ptr %12, i64 0, i64 0
  %46 = call ptr @moduleCreateArgvFromUserFormat(ptr noundef %43, ptr noundef %44, ptr noundef %9, ptr noundef %10, ptr noundef %45)
  store ptr %46, ptr %8, align 8, !tbaa !154
  %47 = getelementptr inbounds [1 x %struct.__va_list_tag], ptr %12, i64 0, i64 0
  call void @llvm.va_end.p0(ptr %47)
  %48 = load ptr, ptr %8, align 8, !tbaa !154
  %49 = icmp eq ptr %48, null
  br i1 %49, label %50, label %67

50:                                               ; preds = %41
  br label %51

51:                                               ; preds = %50
  %52 = load i32, ptr getelementptr inbounds nuw (%struct.redisServer, ptr @server, i32 0, i32 159), align 8, !tbaa !101
  %53 = icmp slt i32 3, %52
  br i1 %53, label %54, label %55

54:                                               ; preds = %51
  br label %63

55:                                               ; preds = %51
  %56 = load ptr, ptr %4, align 8, !tbaa !521
  %57 = getelementptr inbounds nuw %struct.RedisModuleIO, ptr %56, i32 0, i32 2
  %58 = load ptr, ptr %57, align 8, !tbaa !523
  %59 = getelementptr inbounds nuw %struct.RedisModuleType, ptr %58, i32 0, i32 20
  %60 = getelementptr inbounds [10 x i8], ptr %59, i64 0, i64 0
  %61 = load ptr, ptr %6, align 8, !tbaa !11
  call void (i32, ptr, ...) @_serverLog(i32 noundef 3, ptr noundef @.str.64, ptr noundef %60, ptr noundef %61)
  br label %62

62:                                               ; preds = %55
  br label %63

63:                                               ; preds = %62, %54
  %64 = load ptr, ptr %4, align 8, !tbaa !521
  %65 = getelementptr inbounds nuw %struct.RedisModuleIO, ptr %64, i32 0, i32 3
  store i32 1, ptr %65, align 8, !tbaa !526
  %66 = call ptr @__errno_location() #20
  store i32 22, ptr %66, align 4, !tbaa !29
  store i32 1, ptr %13, align 4
  br label %118

67:                                               ; preds = %41
  %68 = load ptr, ptr %4, align 8, !tbaa !521
  %69 = getelementptr inbounds nuw %struct.RedisModuleIO, ptr %68, i32 0, i32 3
  %70 = load i32, ptr %69, align 8, !tbaa !526
  %71 = icmp ne i32 %70, 0
  br i1 %71, label %83, label %72

72:                                               ; preds = %67
  %73 = load ptr, ptr %4, align 8, !tbaa !521
  %74 = getelementptr inbounds nuw %struct.RedisModuleIO, ptr %73, i32 0, i32 1
  %75 = load ptr, ptr %74, align 8, !tbaa !531
  %76 = load i32, ptr %9, align 4, !tbaa !29
  %77 = sext i32 %76 to i64
  %78 = call i64 @rioWriteBulkCount(ptr noundef %75, i8 noundef signext 42, i64 noundef %77)
  %79 = icmp eq i64 %78, 0
  br i1 %79, label %80, label %83

80:                                               ; preds = %72
  %81 = load ptr, ptr %4, align 8, !tbaa !521
  %82 = getelementptr inbounds nuw %struct.RedisModuleIO, ptr %81, i32 0, i32 3
  store i32 1, ptr %82, align 8, !tbaa !526
  br label %83

83:                                               ; preds = %80, %72, %67
  store i32 0, ptr %11, align 4, !tbaa !29
  br label %84

84:                                               ; preds = %113, %83
  %85 = load i32, ptr %11, align 4, !tbaa !29
  %86 = load i32, ptr %9, align 4, !tbaa !29
  %87 = icmp slt i32 %85, %86
  br i1 %87, label %88, label %116

88:                                               ; preds = %84
  %89 = load ptr, ptr %4, align 8, !tbaa !521
  %90 = getelementptr inbounds nuw %struct.RedisModuleIO, ptr %89, i32 0, i32 3
  %91 = load i32, ptr %90, align 8, !tbaa !526
  %92 = icmp ne i32 %91, 0
  br i1 %92, label %107, label %93

93:                                               ; preds = %88
  %94 = load ptr, ptr %4, align 8, !tbaa !521
  %95 = getelementptr inbounds nuw %struct.RedisModuleIO, ptr %94, i32 0, i32 1
  %96 = load ptr, ptr %95, align 8, !tbaa !531
  %97 = load ptr, ptr %8, align 8, !tbaa !154
  %98 = load i32, ptr %11, align 4, !tbaa !29
  %99 = sext i32 %98 to i64
  %100 = getelementptr inbounds ptr, ptr %97, i64 %99
  %101 = load ptr, ptr %100, align 8, !tbaa !69
  %102 = call i32 @rioWriteBulkObject(ptr noundef %96, ptr noundef %101)
  %103 = icmp eq i32 %102, 0
  br i1 %103, label %104, label %107

104:                                              ; preds = %93
  %105 = load ptr, ptr %4, align 8, !tbaa !521
  %106 = getelementptr inbounds nuw %struct.RedisModuleIO, ptr %105, i32 0, i32 3
  store i32 1, ptr %106, align 8, !tbaa !526
  br label %107

107:                                              ; preds = %104, %93, %88
  %108 = load ptr, ptr %8, align 8, !tbaa !154
  %109 = load i32, ptr %11, align 4, !tbaa !29
  %110 = sext i32 %109 to i64
  %111 = getelementptr inbounds ptr, ptr %108, i64 %110
  %112 = load ptr, ptr %111, align 8, !tbaa !69
  call void @decrRefCount(ptr noundef %112)
  br label %113

113:                                              ; preds = %107
  %114 = load i32, ptr %11, align 4, !tbaa !29
  %115 = add nsw i32 %114, 1
  store i32 %115, ptr %11, align 4, !tbaa !29
  br label %84, !llvm.loop !543

116:                                              ; preds = %84
  %117 = load ptr, ptr %8, align 8, !tbaa !154
  call void @zfree(ptr noundef %117)
  store i32 1, ptr %13, align 4
  br label %118

118:                                              ; preds = %116, %63, %37
  call void @llvm.lifetime.end.p0(i64 24, ptr %12) #15
  call void @llvm.lifetime.end.p0(i64 4, ptr %11) #15
  call void @llvm.lifetime.end.p0(i64 4, ptr %10) #15
  call void @llvm.lifetime.end.p0(i64 4, ptr %9) #15
  call void @llvm.lifetime.end.p0(i64 8, ptr %8) #15
  call void @llvm.lifetime.end.p0(i64 8, ptr %7) #15
  br label %119

119:                                              ; preds = %118, %18
  ret void
}