; Function Attrs: nounwind uwtable
define dso_local void @RM_EmitAOF(ptr noundef captures(none) %0, ptr noundef %1, ptr noundef %2, ...) #0 {
  %4 = alloca i32, align 4
  %5 = alloca i32, align 4
  %6 = alloca [1 x %struct.__va_list_tag], align 16
  %7 = getelementptr inbounds nuw i8, ptr %0, i64 24
  %8 = load i32, ptr %7, align 8, !tbaa !441
  %.not = icmp eq i32 %8, 0
  br i1 %.not, label %9, label %62

9:                                                ; preds = %3
  call void @llvm.lifetime.start.p0(i64 4, ptr nonnull %4) #35
  store i32 0, ptr %4, align 4, !tbaa !22
  call void @llvm.lifetime.start.p0(i64 4, ptr nonnull %5) #35
  store i32 0, ptr %5, align 4, !tbaa !22
  call void @llvm.lifetime.start.p0(i64 24, ptr nonnull %6) #35
  %10 = tail call ptr @lookupCommandByCString(ptr noundef %1) #35
  %.not25 = icmp eq ptr %10, null
  br i1 %.not25, label %11, label %20

11:                                               ; preds = %9
  %12 = load i32, ptr getelementptr inbounds nuw (i8, ptr @server, i64 6288), align 8, !tbaa !90
  %13 = icmp sgt i32 %12, 3
  br i1 %13, label %18, label %14

14:                                               ; preds = %11
  %15 = getelementptr inbounds nuw i8, ptr %0, i64 16
  %16 = load ptr, ptr %15, align 8, !tbaa !438
  %17 = getelementptr inbounds nuw i8, ptr %16, i64 156
  tail call void (i32, ptr, ...) @_serverLog(i32 noundef 3, ptr noundef nonnull @.str.63, ptr noundef nonnull %17, ptr noundef %1) #35
  br label %18

18:                                               ; preds = %11, %14
  store i32 1, ptr %7, align 8, !tbaa !441
  %19 = tail call ptr @__errno_location() #40
  store i32 22, ptr %19, align 4, !tbaa !22
  br label %61

20:                                               ; preds = %9
  call void @llvm.va_start.p0(ptr nonnull %6)
  %21 = call ptr @moduleCreateArgvFromUserFormat(ptr noundef %1, ptr noundef %2, ptr noundef nonnull %4, ptr noundef nonnull %5, ptr noundef nonnull %6)
  call void @llvm.va_end.p0(ptr nonnull %6)
  %22 = icmp eq ptr %21, null
  br i1 %22, label %23, label %32

23:                                               ; preds = %20
  %24 = load i32, ptr getelementptr inbounds nuw (i8, ptr @server, i64 6288), align 8, !tbaa !90
  %25 = icmp sgt i32 %24, 3
  br i1 %25, label %30, label %26

26:                                               ; preds = %23
  %27 = getelementptr inbounds nuw i8, ptr %0, i64 16
  %28 = load ptr, ptr %27, align 8, !tbaa !438
  %29 = getelementptr inbounds nuw i8, ptr %28, i64 156
  call void (i32, ptr, ...) @_serverLog(i32 noundef 3, ptr noundef nonnull @.str.64, ptr noundef nonnull %29, ptr noundef %2) #35
  br label %30

30:                                               ; preds = %23, %26
  store i32 1, ptr %7, align 8, !tbaa !441
  %31 = tail call ptr @__errno_location() #40
  store i32 22, ptr %31, align 4, !tbaa !22
  br label %61

32:                                               ; preds = %20
  %33 = load i32, ptr %7, align 8, !tbaa !441
  %.not26 = icmp eq i32 %33, 0
  br i1 %.not26, label %34, label %42

34:                                               ; preds = %32
  %35 = getelementptr inbounds nuw i8, ptr %0, i64 8
  %36 = load ptr, ptr %35, align 8, !tbaa !447
  %37 = load i32, ptr %4, align 4, !tbaa !22
  %38 = sext i32 %37 to i64
  %39 = call i64 @rioWriteBulkCount(ptr noundef %36, i8 noundef signext 42, i64 noundef %38) #35
  %40 = icmp eq i64 %39, 0
  br i1 %40, label %41, label %42

41:                                               ; preds = %34
  store i32 1, ptr %7, align 8, !tbaa !441
  br label %42

42:                                               ; preds = %41, %34, %32
  %43 = load i32, ptr %4, align 4, !tbaa !22
  %44 = icmp sgt i32 %43, 0
  br i1 %44, label %.lr.ph, label %._crit_edge

.lr.ph:                                           ; preds = %42
  %45 = getelementptr inbounds nuw i8, ptr %0, i64 8
  br label %46

46:                                               ; preds = %.lr.ph, %55
  %indvars.iv = phi i64 [ 0, %.lr.ph ], [ %indvars.iv.next, %55 ]
  %47 = load i32, ptr %7, align 8, !tbaa !441
  %.not27 = icmp eq i32 %47, 0
  br i1 %.not27, label %48, label %55

48:                                               ; preds = %46
  %49 = load ptr, ptr %45, align 8, !tbaa !447
  %50 = getelementptr inbounds nuw ptr, ptr %21, i64 %indvars.iv
  %51 = load ptr, ptr %50, align 8, !tbaa !141
  %52 = call i32 @rioWriteBulkObject(ptr noundef %49, ptr noundef %51) #35
  %53 = icmp eq i32 %52, 0
  br i1 %53, label %54, label %55

54:                                               ; preds = %48
  store i32 1, ptr %7, align 8, !tbaa !441
  br label %55

55:                                               ; preds = %54, %48, %46
  %56 = getelementptr inbounds nuw ptr, ptr %21, i64 %indvars.iv
  %57 = load ptr, ptr %56, align 8, !tbaa !141
  call void @decrRefCount(ptr noundef %57) #35
  %indvars.iv.next = add nuw nsw i64 %indvars.iv, 1
  %58 = load i32, ptr %4, align 4, !tbaa !22
  %59 = sext i32 %58 to i64
  %60 = icmp slt i64 %indvars.iv.next, %59
  br i1 %60, label %46, label %._crit_edge, !llvm.loop !457

._crit_edge:                                      ; preds = %55, %42
  call void @zfree(ptr noundef nonnull %21) #35
  br label %61

61:                                               ; preds = %._crit_edge, %30, %18
  call void @llvm.lifetime.end.p0(i64 24, ptr nonnull %6) #35
  call void @llvm.lifetime.end.p0(i64 4, ptr nonnull %5) #35
  call void @llvm.lifetime.end.p0(i64 4, ptr nonnull %4) #35
  br label %62

62:                                               ; preds = %3, %61
  ret void
}